target datalayout = "e-m:e-p270:32:32-p271:32:32-p272:64:64-i64:64-i128:128-f80:128-n8:16:32:64-S128"
target triple = "x86_64-pc-linux-gnu"

%struct.forward = type { %struct.slurm_node_alias_addrs_t, i16, i16, ptr, i32, i16, i16 }
%struct.slurm_node_alias_addrs_t = type { i64, ptr, ptr, i32, ptr }
%struct.sockaddr_storage = type { i16, [118 x i8], i64 }
%struct.slurm_msg = type { %struct.sockaddr_storage, ptr, i32, i32, i32, i8, i32, i8, i32, ptr, ptr, i32, ptr, ptr, i16, i8, i16, i16, %struct.forward, ptr, %struct.sockaddr_storage, ptr }
%struct.tls_cert_response_msg_t = type { ptr }

; Function Attrs: nounwind uwtable
define internal void @_pack_tls_cert_response_msg(ptr noundef %0, ptr noundef %1) #0 {
  %3 = alloca ptr, align 8
  %4 = alloca ptr, align 8
  %5 = alloca ptr, align 8
  %6 = alloca i32, align 4
  store ptr %0, ptr %3, align 8
  store ptr %1, ptr %4, align 8
  call void @llvm.lifetime.start.p0(i64 8, ptr %5) #6
  %7 = load ptr, ptr %3, align 8
  %8 = getelementptr inbounds nuw %struct.slurm_msg, ptr %7, i32 0, i32 13
  %9 = load ptr, ptr %8, align 8
  store ptr %9, ptr %5, align 8
  %10 = load ptr, ptr %3, align 8
  %11 = getelementptr inbounds nuw %struct.slurm_msg, ptr %10, i32 0, i32 17
  %12 = load i16, ptr %11, align 2
  %13 = zext i16 %12 to i32
  %14 = icmp sge i32 %13, 10240
  br i1 %14, label %15, label %36

15:                                               ; preds = %2
  br label %16

16:                                               ; preds = %15
  call void @llvm.lifetime.start.p0(i64 4, ptr %6) #6
  store i32 0, ptr %6, align 4
  %17 = load ptr, ptr %5, align 8
  %18 = getelementptr inbounds nuw %struct.tls_cert_response_msg_t, ptr %17, i32 0, i32 0
  %19 = load ptr, ptr %18, align 8
  %20 = icmp ne ptr %19, null
  br i1 %20, label %21, label %28

21:                                               ; preds = %16
  %22 = load ptr, ptr %5, align 8
  %23 = getelementptr inbounds nuw %struct.tls_cert_response_msg_t, ptr %22, i32 0, i32 0
  %24 = load ptr, ptr %23, align 8
  %25 = call i64 @strlen(ptr noundef %24) #7
  %26 = trunc i64 %25 to i32
  %27 = add i32 %26, 1
  store i32 %27, ptr %6, align 4
  br label %28

28:                                               ; preds = %21, %16
  %29 = load ptr, ptr %5, align 8
  %30 = getelementptr inbounds nuw %struct.tls_cert_response_msg_t, ptr %29, i32 0, i32 0
  %31 = load ptr, ptr %30, align 8
  %32 = load i32, ptr %6, align 4
  %33 = load ptr, ptr %4, align 8
  call void @packmem(ptr noundef %31, i32 noundef %32, ptr noundef %33)
  call void @llvm.lifetime.end.p0(i64 4, ptr %6) #6
  br label %34

34:                                               ; preds = %28
  br label %35

35:                                               ; preds = %34
  br label %36

36:                                               ; preds = %35, %2
  call void @llvm.lifetime.end.p0(i64 8, ptr %5) #6
  ret void
}