; Function Attrs: nounwind uwtable
define internal fastcc void @_pack_tls_cert_response_msg(ptr readonly captures(none) %.200.val, i16 %.214.val, ptr noundef %0) unnamed_addr #0 {
  %2 = icmp ugt i16 %.214.val, 10239
  br i1 %2, label %3, label %10

3:                                                ; preds = %1
  %4 = load ptr, ptr %.200.val, align 8
  %.not = icmp eq ptr %4, null
  br i1 %.not, label %9, label %5

5:                                                ; preds = %3
  %6 = tail call i64 @strlen(ptr noundef nonnull dereferenceable(1) %4) #8
  %7 = trunc i64 %6 to i32
  %8 = add i32 %7, 1
  br label %9

9:                                                ; preds = %5, %3
  %.0 = phi i32 [ %8, %5 ], [ 0, %3 ]
  tail call void @packmem(ptr noundef %4, i32 noundef %.0, ptr noundef %0) #7
  br label %10

10:                                               ; preds = %9, %1
  ret void
}